; Function Attrs: mustprogress nofree norecurse nosync nounwind willreturn memory(argmem: read) uwtable
define internal noundef i32 @_ZN3gmx8internal14EnumIndexStoreINS_15analysismodules12_GLOBAL__N_111ScatterTypeEE10valueCountEv(ptr noundef nonnull readonly align 8 captures(none) dereferenceable(48) %0) unnamed_addr #14 align 2 {
  %2 = getelementptr inbounds nuw i8, ptr %0, i64 8
  %3 = getelementptr inbounds nuw i8, ptr %0, i64 16
  %4 = load ptr, ptr %3, align 8, !tbaa !222
  %5 = load ptr, ptr %2, align 8, !tbaa !223
  %6 = ptrtoint ptr %4 to i64
  %7 = ptrtoint ptr %5 to i64
  %8 = sub i64 %6, %7
  %9 = lshr exact i64 %8, 2
  %10 = trunc i64 %9 to i32
  ret i32 %10
}